; Function Attrs: mustprogress uwtable
define hidden void @_ZN3smt17theory_array_base14finalize_modelERNS_15model_generatorE(ptr nocapture noundef nonnull readonly align 8 dereferenceable(249) %this, ptr nocapture nonnull readnone align 8 %m) unnamed_addr #3 align 2 personality ptr @__gxx_personality_v0 {
entry:
  %m_selects_range = getelementptr inbounds i8, ptr %this, i64 240
  %0 = load ptr, ptr %m_selects_range, align 8
  %cmp.i.i = icmp eq ptr %0, null
  br i1 %cmp.i.i, label %_ZSt8for_eachIPP13ptr_hashtableIN3smt5enodeENS1_17theory_array_base8sel_hashENS3_6sel_eqEE11delete_procIS6_EET0_T_SC_SB_.exit, label %_ZN6vectorIP13ptr_hashtableIN3smt5enodeENS1_17theory_array_base8sel_hashENS3_6sel_eqEELb0EjE3endEv.exit

_ZN6vectorIP13ptr_hashtableIN3smt5enodeENS1_17theory_array_base8sel_hashENS3_6sel_eqEELb0EjE3endEv.exit: ; preds = %entry
  %arrayidx.i.i = getelementptr inbounds i8, ptr %0, i64 -4
  %1 = load i32, ptr %arrayidx.i.i, align 4
  %2 = zext i32 %1 to i64
  %add.ptr.i = getelementptr inbounds ptr, ptr %0, i64 %2
  %cmp.not3.i = icmp eq i32 %1, 0
  br i1 %cmp.not3.i, label %_ZSt8for_eachIPP13ptr_hashtableIN3smt5enodeENS1_17theory_array_base8sel_hashENS3_6sel_eqEE11delete_procIS6_EET0_T_SC_SB_.exit, label %for.body.i

for.body.i:                                       ; preds = %_ZN6vectorIP13ptr_hashtableIN3smt5enodeENS1_17theory_array_base8sel_hashENS3_6sel_eqEELb0EjE3endEv.exit, %_ZN11delete_procI13ptr_hashtableIN3smt5enodeENS1_17theory_array_base8sel_hashENS3_6sel_eqEEEclEPS6_.exit.i
  %__first.addr.04.i = phi ptr [ %incdec.ptr.i, %_ZN11delete_procI13ptr_hashtableIN3smt5enodeENS1_17theory_array_base8sel_hashENS3_6sel_eqEEEclEPS6_.exit.i ], [ %0, %_ZN6vectorIP13ptr_hashtableIN3smt5enodeENS1_17theory_array_base8sel_hashENS3_6sel_eqEELb0EjE3endEv.exit ]
  %3 = load ptr, ptr %__first.addr.04.i, align 8
  %tobool.not.i.i = icmp eq ptr %3, null
  br i1 %tobool.not.i.i, label %_ZN11delete_procI13ptr_hashtableIN3smt5enodeENS1_17theory_array_base8sel_hashENS3_6sel_eqEEEclEPS6_.exit.i, label %if.end.i.i.i

if.end.i.i.i:                                     ; preds = %for.body.i
  %4 = load ptr, ptr %3, align 8
  %cmp.i.i.i.i.i.i.i = icmp eq ptr %4, null
  br i1 %cmp.i.i.i.i.i.i.i, label %_Z7deallocI13ptr_hashtableIN3smt5enodeENS1_17theory_array_base8sel_hashENS3_6sel_eqEEEvPT_.exit.i.i, label %for.cond.preheader.i.i.i.i.i.i.i

for.cond.preheader.i.i.i.i.i.i.i:                 ; preds = %if.end.i.i.i
  invoke void @_ZN6memory10deallocateEPv(ptr noundef nonnull %4)
          to label %_Z7deallocI13ptr_hashtableIN3smt5enodeENS1_17theory_array_base8sel_hashENS3_6sel_eqEEEvPT_.exit.i.i unwind label %terminate.lpad.i.i.i.i.i

terminate.lpad.i.i.i.i.i:                         ; preds = %for.cond.preheader.i.i.i.i.i.i.i
  %5 = landingpad { ptr, i32 }
          catch ptr null
  %6 = extractvalue { ptr, i32 } %5, 0
  tail call void @__clang_call_terminate(ptr %6) #20
  unreachable

_Z7deallocI13ptr_hashtableIN3smt5enodeENS1_17theory_array_base8sel_hashENS3_6sel_eqEEEvPT_.exit.i.i: ; preds = %for.cond.preheader.i.i.i.i.i.i.i, %if.end.i.i.i
  store ptr null, ptr %3, align 8
  tail call void @_ZN6memory10deallocateEPv(ptr noundef nonnull %3)
  br label %_ZN11delete_procI13ptr_hashtableIN3smt5enodeENS1_17theory_array_base8sel_hashENS3_6sel_eqEEEclEPS6_.exit.i

_ZN11delete_procI13ptr_hashtableIN3smt5enodeENS1_17theory_array_base8sel_hashENS3_6sel_eqEEEclEPS6_.exit.i: ; preds = %_Z7deallocI13ptr_hashtableIN3smt5enodeENS1_17theory_array_base8sel_hashENS3_6sel_eqEEEvPT_.exit.i.i, %for.body.i
  %incdec.ptr.i = getelementptr inbounds i8, ptr %__first.addr.04.i, i64 8
  %cmp.not.i = icmp eq ptr %incdec.ptr.i, %add.ptr.i
  br i1 %cmp.not.i, label %_ZSt8for_eachIPP13ptr_hashtableIN3smt5enodeENS1_17theory_array_base8sel_hashENS3_6sel_eqEE11delete_procIS6_EET0_T_SC_SB_.exit, label %for.body.i, !llvm.loop !54

_ZSt8for_eachIPP13ptr_hashtableIN3smt5enodeENS1_17theory_array_base8sel_hashENS3_6sel_eqEE11delete_procIS6_EET0_T_SC_SB_.exit: ; preds = %_ZN11delete_procI13ptr_hashtableIN3smt5enodeENS1_17theory_array_base8sel_hashENS3_6sel_eqEEEclEPS6_.exit.i, %entry, %_ZN6vectorIP13ptr_hashtableIN3smt5enodeENS1_17theory_array_base8sel_hashENS3_6sel_eqEELb0EjE3endEv.exit
  ret void
}